Certificate:
    Data:
        Version: 1 (0x0)
        Serial Number:
            c9:04:d6:dd:c9:d8:75:9f
    Signature Algorithm: sha1WithRSAEncryption
        Issuer: C=US, ST=CA, L=Santa Clara, O=Real Time Innovations, CN=RTI CA/emailAddress=secure@rti.com
        Validity
            Not Before: Nov 23 10:41:37 2013 GMT
            Not After : Nov 23 10:41:37 2014 GMT
        Subject: C=US, ST=CA, O=Real Time Innovations, CN=dtlsexample/emailAddress=me@rti.com
        Subject Public Key Info:
            Public Key Algorithm: rsaEncryption
                Public-Key: (2048 bit)
                Modulus:
                    00:e2:cc:87:e2:dc:71:b7:ac:0a:ca:95:41:28:5e:
                    f2:f5:e1:1e:f0:67:1b:d9:1d:eb:4c:1f:03:34:bc:
                    d8:2d:d1:19:d6:e8:a8:6c:40:0d:1b:3e:da:ed:0e:
                    33:f3:57:d2:45:f8:be:10:fd:41:18:51:3a:9e:50:
                    07:d5:ba:35:d4:b5:97:08:a1:b6:a7:1d:9c:39:ff:
                    09:72:de:8d:30:01:f4:87:7d:ca:a6:bd:31:b5:a1:
                    77:b5:57:08:99:9f:66:36:68:ea:83:6d:df:6c:ff:
                    c4:12:89:6f:6d:a7:c7:2b:89:36:27:df:b0:de:f0:
                    37:0e:cd:60:3a:d8:b1:53:5e:44:ac:e6:b6:de:62:
                    56:71:1e:d8:e6:4a:be:99:06:a6:00:4d:e4:a4:31:
                    e6:54:b8:c4:c9:88:d3:3c:be:20:43:b5:a2:ea:58:
                    46:bf:94:94:7b:0d:b7:98:ef:d1:45:6d:55:9e:b2:
                    81:e3:50:59:a7:77:3a:ae:a5:e7:b7:80:a3:f8:72:
                    65:6c:80:f0:b1:55:bb:44:db:6a:6d:4f:cd:19:ad:
                    09:0a:40:0f:54:bd:f7:39:8f:b4:b2:53:42:b6:7f:
                    d1:cb:79:0c:5f:b7:9c:a6:d1:e0:6a:05:0f:5c:49:
                    2c:48:bf:0e:16:a0:81:3f:5d:93:18:24:48:75:d8:
                    a7:bd
                Exponent: 65537 (0x10001)
    Signature Algorithm: sha1WithRSAEncryption
         0c:8e:e0:6a:8b:00:aa:c2:22:bf:f6:2a:34:34:8d:bf:f3:c2:
         2f:63:bb:6e:5a:28:b1:3a:0b:e7:3c:f3:bc:d9:9b:a1:82:9e:
         aa:73:20:24:9c:31:3d:63:88:f0:e2:3b:c5:ef:89:60:a9:87:
         fe:9e:c3:3a:2c:8a:b6:69:45:36:3d:fa:1f:bc:b5:cc:51:04:
         cb:3d:00:31:0a:ca:41:7b:9d:f4:75:1d:3c:92:35:4f:28:f9:
         70:84:d0:66:43:41:e1:df:7a:f4:86:cf:16:e7:8e:ea:63:4d:
         ba:a7:46:1c:ed:cb:a1:b2:0f:76:32:64:e4:a9:0b:8d:b0:26:
         77:89:3d:29:ab:15:90:da:b9:ba:3a:21:25:e0:ef:b4:4c:64:
         03:40:f4:7e:3d:2a:15:0a:03:1b:59:39:c5:a3:7f:2e:79:de:
         5e:18:05:89:03:e8:46:de:46:c8:d5:9d:eb:a8:47:98:6d:1a:
         89:e8:95:0e:d3:87:63:d4:39:f6:9d:da:e5:44:02:d6:cb:17:
         b5:45:aa:0d:05:4a:ce:b4:48:4b:cb:28:dd:c4:17:46:8c:35:
         ce:53:4a:b5:57:f3:0a:94:c1:bd:39:e2:fe:fe:ce:aa:e9:29:
         02:e4:cc:89:0a:c2:26:0b:5b:10:eb:a1:dc:c4:6b:d8:38:16:
         6b:7d:0e:d9
-----BEGIN CERTIFICATE-----
MIIDaDCCAlACCQDJBNbdydh1nzANBgkqhkiG9w0BAQUFADCBgDELMAkGA1UEBhMC
VVMxCzAJBgNVBAgTAkNBMRQwEgYDVQQHEwtTYW50YSBDbGFyYTEeMBwGA1UEChMV
UmVhbCBUaW1lIElubm92YXRpb25zMQ8wDQYDVQQDEwZSVEkgQ0ExHTAbBgkqhkiG
9w0BCQEWDnNlY3VyZUBydGkuY29tMB4XDTEzMTEyMzEwNDEzN1oXDTE0MTEyMzEw
NDEzN1owazELMAkGA1UEBhMCVVMxCzAJBgNVBAgTAkNBMR4wHAYDVQQKExVSZWFs
IFRpbWUgSW5ub3ZhdGlvbnMxFDASBgNVBAMTC2R0bHNleGFtcGxlMRkwFwYJKoZI
hvcNAQkBFgptZUBydGkuY29tMIIBIjANBgkqhkiG9w0BAQEFAAOCAQ8AMIIBCgKC
AQEA4syH4txxt6wKypVBKF7y9eEe8Gcb2R3rTB8DNLzYLdEZ1uiobEANGz7a7Q4z
81fSRfi+EP1BGFE6nlAH1bo11LWXCKG2px2cOf8Jct6NMAH0h33Kpr0xtaF3tVcI
mZ9mNmjqg23fbP/EEolvbafHK4k2J9+w3vA3Ds1gOtixU15ErOa23mJWcR7Y5kq+
mQamAE3kpDHmVLjEyYjTPL4gQ7Wi6lhGv5SUew23mO/RRW1VnrKB41BZp3c6rqXn
t4Cj+HJlbIDwsVW7RNtqbU/NGa0JCkAPVL33OY+0slNCtn/Ry3kMX7ecptHgagUP
XEksSL8OFqCBP12TGCRIddinvQIDAQABMA0GCSqGSIb3DQEBBQUAA4IBAQAMjuBq
iwCqwiK/9io0NI2/88IvY7tuWiixOgvnPPO82Zuhgp6qcyAknDE9Y4jw4jvF74lg
qYf+nsM6LIq2aUU2PfofvLXMUQTLPQAxCspBe530dR08kjVPKPlwhNBmQ0Hh33r0
hs8W547qY026p0Yc7cuhsg92MmTkqQuNsCZ3iT0pqxWQ2rm6OiEl4O+0TGQDQPR+
PSoVCgMbWTnFo38ued5eGAWJA+hG3kbI1Z3rqEeYbRqJ6JUO04dj1Dn2ndrlRALW
yxe1RaoNBUrOtEhLyyjdxBdGjDXOU0q1V/MKlMG9OeL+/s6q6SkC5MyJCsImC1sQ
66HcxGvYOBZrfQ7Z
-----END CERTIFICATE-----
-----BEGIN PRIVATE KEY-----
MIIEvwIBADANBgkqhkiG9w0BAQEFAASCBKkwggSlAgEAAoIBAQDizIfi3HG3rArK
lUEoXvL14R7wZxvZHetMHwM0vNgt0RnW6KhsQA0bPtrtDjPzV9JF+L4Q/UEYUTqe
UAfVujXUtZcIobanHZw5/wly3o0wAfSHfcqmvTG1oXe1VwiZn2Y2aOqDbd9s/8QS
iW9tp8criTYn37De8DcOzWA62LFTXkSs5rbeYlZxHtjmSr6ZBqYATeSkMeZUuMTJ
iNM8viBDtaLqWEa/lJR7DbeY79FFbVWesoHjUFmndzqupee3gKP4cmVsgPCxVbtE
22ptT80ZrQkKQA9Uvfc5j7SyU0K2f9HLeQxft5ym0eBqBQ9cSSxIvw4WoIE/XZMY
JEh12Ke9AgMBAAECggEAPqh3GkwA9teHG7TkjXy97wRFAfHalb9YVG10+0r5Bp9w
Xhlk/pMri81vunJkE+S9aStxh0wQgeFfKoG9yGRrntqUYYQb7EuX78XwHFYz94Fy
x0QPisVWSHHVmrny3E5XdMzDjY/7XCfFScHCkS77LaH43kdEnDMNYv+GiHt5cihh
8L/XLvyaka4QGmQ/GR/DqxYRqc4uAP2OwGuOFyVQ4Fg3IVSfd6Mi/I5BzKgYPeRB
FlIOBgjJ1LBt8Q4Y1mQcwlrRVMwLe3X/oSi/5AbTb86ueRK6tv+Nexj8SASy51ej
J25KG5G0oYbumgLcHnDUR7iNK8K5T12iAbe6rP9/gQKBgQD2LxDqx+sdLT7v6E6s
TNa3t9wBzaHsrR/6iznMFoabyYN8uENUOU1LAEPApq+HgNWDv4/bpYFSXxf66O8D
ONIzIg/ZtaTf89R5T28841NAjfQX3KeUPAIh40RNZ75jM9fl+fSLG37GXqfGxZk/
zL+7WNoueWGsTDhojDHVy6Ip7QKBgQDr15ekr1bSz2rQd/+5/pvUADLQ064mg+NV
karsh6SHT1bjv7q6wb0HB+gMHRC9gnjl8Nl2FTfpxJfhgENoNNzUHVcY/wigoBMv
QCffMr0vjx02LgC3XFeqixxxUNhqfuplQcnvCxpveWcJie6t3QFF1XFCwJDoUaL7
yL+SA8t7EQKBgQCd/aiitDh8Wgw5FOJgi1OFRhaIhbp0VMrgFLe79Xzfv9yFjw+O
ntOu3XWdzpt5n8HnMmoVcUrkXSjbmt/BNpcXv7ViZ8NvAmGKlOLztYQ5OqC7K53U
cQqBSwQLlRfHPH9DFT3OhI/AqQCNfUSTgEhP6H7lMnrvg170IXzeEzh4JQKBgQCX
Q5X9iIBVgbdusiiQ8N6dYOs2yS4fgePjVCSexHkgWCDQvn5TnkNRKR8J9fJwuig0
wv+XHxDXnMIVXiDdy1n/qjnczGaKL2FeovVv0KlKwa3ovCS1dkK8HbFGdKX52CEa
hNGxwhtYeDNACPnPBbr1QWr9d2j5uLKibyV/z3NJIQKBgQC5F+aT+RrWHEoI/vLC
qu1ftXGYEV05UUKlA/IqXcydEpQIaJYJZVC1+0DARjWIufMHa6Jq6oXDwt2nLIzo
VKosNLVb06LrIbghhPVy7A3v2sei9yTNh3YpJ6F8DQkWasHkVSNHc4Af6A6wFC8O
tPhX7FMxSZeWSIrt8WePl7JEEQ==
-----END PRIVATE KEY-----
