Certificate:
    Data:
        Version: 1 (0x0)
        Serial Number:
            c9:04:d6:dd:c9:d8:75:a0
    Signature Algorithm: sha1WithRSAEncryption
        Issuer: C=US, ST=CA, L=Santa Clara, O=Real Time Innovations, CN=RTI CA/emailAddress=secure@rti.com
        Validity
            Not Before: Nov 23 10:41:42 2013 GMT
            Not After : Nov 23 10:41:42 2014 GMT
        Subject: C=US, ST=CA, O=Real Time Innovations, CN=dtlsexample2/emailAddress=you@rti.com
        Subject Public Key Info:
            Public Key Algorithm: rsaEncryption
                Public-Key: (2048 bit)
                Modulus:
                    00:b4:f7:cc:07:1f:16:0b:70:70:89:f9:a4:e9:6e:
                    9a:f9:32:7c:ea:40:a9:a5:e5:1c:c0:2b:e5:35:42:
                    34:01:af:91:7a:90:44:d8:85:84:c0:c1:85:22:49:
                    2d:5c:77:cc:55:87:0f:8c:82:c6:5b:be:5f:4f:47:
                    62:eb:eb:6c:b2:01:61:4a:f5:0a:48:ee:95:c3:92:
                    f8:bb:f8:f3:65:d0:b2:ce:c8:fa:ec:8c:ee:9b:24:
                    6c:cd:0d:f5:d4:f6:58:0d:d0:24:d2:dc:f2:6e:c0:
                    89:dd:b3:b5:f0:c6:f8:3c:36:1c:23:3c:60:4f:3d:
                    29:c2:4a:51:3b:bb:14:32:2a:53:76:f8:a8:b7:1c:
                    b6:fc:b9:c1:03:dd:43:83:f0:a9:a8:5d:2e:1c:d0:
                    e9:f8:10:2f:36:92:f5:e4:48:cb:b0:82:11:69:39:
                    0e:77:ba:41:8c:77:a6:db:5a:02:cf:c1:58:3c:d0:
                    51:f3:3d:a8:05:12:cd:c6:08:f6:a5:83:da:a2:0c:
                    b1:05:fc:bf:06:db:92:a7:f2:d8:5c:d9:58:50:d2:
                    87:22:21:7f:53:17:b9:6d:af:da:45:ed:dc:e7:95:
                    d0:27:65:76:2b:ae:37:7b:53:7c:a2:00:d3:9f:a6:
                    ff:73:6e:d2:81:a8:8e:a5:55:bd:2e:61:27:7f:dc:
                    8c:79
                Exponent: 65537 (0x10001)
    Signature Algorithm: sha1WithRSAEncryption
         c2:2e:f2:b0:9a:4b:d7:3b:90:ba:56:87:3e:3b:04:dd:0e:5c:
         63:8d:d7:34:a9:f8:7b:59:bd:de:04:33:e8:ef:4a:61:d7:66:
         aa:0a:2c:cf:01:67:89:09:ef:e6:10:a2:4d:65:68:b9:0e:54:
         e6:a7:01:41:79:bc:d7:97:46:34:ab:e2:4a:71:89:ee:d4:58:
         a2:fb:cc:f7:b2:ec:06:cb:c6:2c:36:92:94:13:2b:6e:6c:5d:
         41:cc:ff:c5:fa:35:69:4c:15:fa:8b:08:22:37:5e:e2:d7:b6:
         36:fa:e8:b7:b7:37:70:52:56:76:2a:25:fb:7e:d9:78:06:77:
         c6:c8:2b:12:d0:29:bd:c7:6b:0f:44:30:e2:df:f8:26:69:21:
         b4:65:63:6c:7e:b9:7e:ce:46:79:55:77:42:dd:87:c2:55:eb:
         07:aa:b4:3a:8b:da:b2:0c:d5:cb:4f:db:80:2f:aa:b6:a6:1a:
         58:7d:9c:be:f8:69:b4:f9:1e:b5:94:72:9d:63:e8:b3:49:1c:
         c8:26:24:31:20:f8:95:2d:e4:c9:e0:dc:99:7d:d8:92:e5:c0:
         a7:3c:f1:4b:10:6a:aa:30:01:32:42:4d:ef:0c:8b:63:be:ed:
         95:e7:a3:55:f0:ad:02:c8:a1:4a:48:c2:2f:37:ec:5d:c2:24:
         4a:7a:c3:19
-----BEGIN CERTIFICATE-----
MIIDajCCAlICCQDJBNbdydh1oDANBgkqhkiG9w0BAQUFADCBgDELMAkGA1UEBhMC
VVMxCzAJBgNVBAgTAkNBMRQwEgYDVQQHEwtTYW50YSBDbGFyYTEeMBwGA1UEChMV
UmVhbCBUaW1lIElubm92YXRpb25zMQ8wDQYDVQQDEwZSVEkgQ0ExHTAbBgkqhkiG
9w0BCQEWDnNlY3VyZUBydGkuY29tMB4XDTEzMTEyMzEwNDE0MloXDTE0MTEyMzEw
NDE0MlowbTELMAkGA1UEBhMCVVMxCzAJBgNVBAgTAkNBMR4wHAYDVQQKExVSZWFs
IFRpbWUgSW5ub3ZhdGlvbnMxFTATBgNVBAMTDGR0bHNleGFtcGxlMjEaMBgGCSqG
SIb3DQEJARYLeW91QHJ0aS5jb20wggEiMA0GCSqGSIb3DQEBAQUAA4IBDwAwggEK
AoIBAQC098wHHxYLcHCJ+aTpbpr5MnzqQKml5RzAK+U1QjQBr5F6kETYhYTAwYUi
SS1cd8xVhw+MgsZbvl9PR2Lr62yyAWFK9QpI7pXDkvi7+PNl0LLOyPrsjO6bJGzN
DfXU9lgN0CTS3PJuwInds7Xwxvg8NhwjPGBPPSnCSlE7uxQyKlN2+Ki3HLb8ucED
3UOD8KmoXS4c0On4EC82kvXkSMuwghFpOQ53ukGMd6bbWgLPwVg80FHzPagFEs3G
CPalg9qiDLEF/L8G25Kn8thc2VhQ0ociIX9TF7ltr9pF7dznldAnZXYrrjd7U3yi
ANOfpv9zbtKBqI6lVb0uYSd/3Ix5AgMBAAEwDQYJKoZIhvcNAQEFBQADggEBAMIu
8rCaS9c7kLpWhz47BN0OXGON1zSp+HtZvd4EM+jvSmHXZqoKLM8BZ4kJ7+YQok1l
aLkOVOanAUF5vNeXRjSr4kpxie7UWKL7zPey7AbLxiw2kpQTK25sXUHM/8X6NWlM
FfqLCCI3XuLXtjb66Le3N3BSVnYqJft+2XgGd8bIKxLQKb3Haw9EMOLf+CZpIbRl
Y2x+uX7ORnlVd0Ldh8JV6weqtDqL2rIM1ctP24AvqramGlh9nL74abT5HrWUcp1j
6LNJHMgmJDEg+JUt5Mng3Jl92JLlwKc88UsQaqowATJCTe8Mi2O+7ZXno1XwrQLI
oUpIwi837F3CJEp6wxk=
-----END CERTIFICATE-----
-----BEGIN PRIVATE KEY-----
MIIEvQIBADANBgkqhkiG9w0BAQEFAASCBKcwggSjAgEAAoIBAQC098wHHxYLcHCJ
+aTpbpr5MnzqQKml5RzAK+U1QjQBr5F6kETYhYTAwYUiSS1cd8xVhw+MgsZbvl9P
R2Lr62yyAWFK9QpI7pXDkvi7+PNl0LLOyPrsjO6bJGzNDfXU9lgN0CTS3PJuwInd
s7Xwxvg8NhwjPGBPPSnCSlE7uxQyKlN2+Ki3HLb8ucED3UOD8KmoXS4c0On4EC82
kvXkSMuwghFpOQ53ukGMd6bbWgLPwVg80FHzPagFEs3GCPalg9qiDLEF/L8G25Kn
8thc2VhQ0ociIX9TF7ltr9pF7dznldAnZXYrrjd7U3yiANOfpv9zbtKBqI6lVb0u
YSd/3Ix5AgMBAAECggEAIP9mFo5WiLNx8daxeVcPrwzDtjsgM/245lmaq8Fsljob
Psv7obeG41bmHcBWIxw9CANelHJsFOJ7oosTwIzm/vY9dVuFCpNmf4jXDf9w8knB
sO74whVYlLVpmWJIRxK8L5iaflCHbCZzfRd9v2+oZ+I98zbZINm4OZMviMKuBg9f
HTbJabMhbOEVhzxJBcYCrZKpY2zLkACpYTjwd/Fhtqqh5aaA43P9xrNnOax+d+Q5
Dvb+j5YWGGovAuLQ2rBvZmqzxQoMHIkBa7aJpUMaSEkJqq/ixFmQPXLTfC1TwYsu
TDgLpBJLeNFQ13feD4uF+PuOT0RmKhbN8zokA8iB4QKBgQDiPEE6OpUt2nYfU2v2
Sz6/AS68fT1ciKgfPBf4aljECrLdJ+3pZZmTrXbkyQpc1VwCKIgyQQnnpv8xAbnQ
EJV6nuGqe/BcYgy4OtFwOAuZP6ZT6KTUq1iigE3kR51OIeVxZQvkpg2GJcGP8LFV
OMKDhrAWlX7GMBHIZxCCR0cetQKBgQDMxuh51HqdfC9xWl7faHH7XyFFD/+LRpzy
VQFm8TjJ0jCJS/QSZChHf8aTbtHlCbg4qXexL5idpvNGy+WAAqFLba3T8dLG2KBz
7NpXI3Wfob8z9XVaDvQTkEzRd8NtVZX7HTeYX+zhmNHxTZg2Tlnj5jMo3DWp0DR8
+5WOg8QNNQKBgCoY8j5GlmnQ4/gSSt2qxMNAEhVK7LciSr59LSyxhVD9eKkEfBXZ
LQm41o3eBwqdPSC9sBJB3fj4LzZMTuozm80UcYOKyoA2Uo2ZjE1ocGgU2vt0J+/W
7ohWfagD13apggtmtR7X815J+kmxjR4BkNhuoKejK9LvMO/slbrYTpidAoGBAMrX
xXTY6tSRLRWlpRC8DxwnMXeNz16RBepuFcN48v3H/VgjKpQFLnkUswlb3wJ3zEok
ZHHZad3QgG8CjkVtVYS4ElY91sIt11K9rdJfR6ZmvFWlsScSZOf0KoPblHP7MWPb
nzSK4MTfcicK69nvZs9/OfIhn+6kVTnwpEbVcyB5AoGAEHhyEjc7fHQ6VnJ2qNhS
/uWZBOa3GiDzBulXR9VSgL326DKiYMgN/p69pnT+jk0WvjjDJDfU9eh90O/KHOgj
WgI6ASJ2+PnI/U2gex2RsDULiKOeotsNBreHvPlibP8RiBGy+L5yK6VpYYiwWgRM
H9kk+R6UAzNhNTPgl+tisYw=
-----END PRIVATE KEY-----
